target datalayout = "e-m:e-p270:32:32-p271:32:32-p272:64:64-i64:64-i128:128-f80:128-n8:16:32:64-S128"
target triple = "x86_64-pc-linux-gnu"

%"class.pxrInternal_v0_24__pxrReserved__::PcpNodeRef" = type { ptr, i64 }
%"class.pxrInternal_v0_24__pxrReserved__::PcpPrimIndex_Graph" = type <{ %"class.pxrInternal_v0_24__pxrReserved__::TfSimpleRefBase.base", [4 x i8], %"class.std::shared_ptr", %"class.std::vector", i8, [7 x i8] }>
%"class.pxrInternal_v0_24__pxrReserved__::TfSimpleRefBase.base" = type { %"class.pxrInternal_v0_24__pxrReserved__::TfRefBase.base" }
%"class.pxrInternal_v0_24__pxrReserved__::TfRefBase.base" = type <{ ptr, %"struct.std::atomic" }>
%"struct.std::atomic" = type { %"struct.std::__atomic_base" }
%"struct.std::__atomic_base" = type { i32 }
%"class.std::shared_ptr" = type { %"class.std::__shared_ptr" }
%"class.std::__shared_ptr" = type { ptr, %"class.std::__shared_count" }
%"class.std::__shared_count" = type { ptr }
%"class.std::vector" = type { %"struct.std::_Vector_base" }
%"struct.std::_Vector_base" = type { %"struct.std::_Vector_base<pxrInternal_v0_24__pxrReserved__::PcpPrimIndex_Graph::_UnsharedData, std::allocator<pxrInternal_v0_24__pxrReserved__::PcpPrimIndex_Graph::_UnsharedData>>::_Vector_impl" }
%"struct.std::_Vector_base<pxrInternal_v0_24__pxrReserved__::PcpPrimIndex_Graph::_UnsharedData, std::allocator<pxrInternal_v0_24__pxrReserved__::PcpPrimIndex_Graph::_UnsharedData>>::_Vector_impl" = type { %"struct.std::_Vector_base<pxrInternal_v0_24__pxrReserved__::PcpPrimIndex_Graph::_UnsharedData, std::allocator<pxrInternal_v0_24__pxrReserved__::PcpPrimIndex_Graph::_UnsharedData>>::_Vector_impl_data" }
%"struct.std::_Vector_base<pxrInternal_v0_24__pxrReserved__::PcpPrimIndex_Graph::_UnsharedData, std::allocator<pxrInternal_v0_24__pxrReserved__::PcpPrimIndex_Graph::_UnsharedData>>::_Vector_impl_data" = type { ptr, ptr, ptr }
%"struct.pxrInternal_v0_24__pxrReserved__::PcpPrimIndex_Graph::_Node" = type <{ %"class.pxrInternal_v0_24__pxrReserved__::TfRefPtr.0", %"class.pxrInternal_v0_24__pxrReserved__::PcpMapExpression", %"class.pxrInternal_v0_24__pxrReserved__::PcpMapExpression", %"struct.pxrInternal_v0_24__pxrReserved__::PcpPrimIndex_Graph::_Node::_Indexes", %"struct.pxrInternal_v0_24__pxrReserved__::PcpPrimIndex_Graph::_Node::_SmallInts", [4 x i8] }>
%"class.pxrInternal_v0_24__pxrReserved__::TfRefPtr.0" = type { ptr }
%"class.pxrInternal_v0_24__pxrReserved__::PcpMapExpression" = type { %"class.pxrInternal_v0_24__pxrReserved__::TfDelegatedCountPtr" }
%"class.pxrInternal_v0_24__pxrReserved__::TfDelegatedCountPtr" = type { ptr }
%"struct.pxrInternal_v0_24__pxrReserved__::PcpPrimIndex_Graph::_Node::_Indexes" = type { i16, i16, i16, i16, i16, i16 }
%"struct.pxrInternal_v0_24__pxrReserved__::PcpPrimIndex_Graph::_Node::_SmallInts" = type { i16, i16, i32 }
%"class.pxrInternal_v0_24__pxrReserved__::TfCallContext" = type <{ ptr, ptr, i64, ptr, i8, [7 x i8] }>
%"struct.pxrInternal_v0_24__pxrReserved__::Tf_DiagnosticLiteHelper" = type { %"class.pxrInternal_v0_24__pxrReserved__::TfCallContext", i32, [4 x i8] }
%"class.pxrInternal_v0_24__pxrReserved__::PcpNodeRef_ChildrenIterator" = type { %"class.pxrInternal_v0_24__pxrReserved__::PcpNodeRef", i64 }
%"struct.std::_Vector_base.3" = type { %"struct.std::_Vector_base<pxrInternal_v0_24__pxrReserved__::PcpPrimIndex_Graph::_Node, std::allocator<pxrInternal_v0_24__pxrReserved__::PcpPrimIndex_Graph::_Node>>::_Vector_impl" }
%"struct.std::_Vector_base<pxrInternal_v0_24__pxrReserved__::PcpPrimIndex_Graph::_Node, std::allocator<pxrInternal_v0_24__pxrReserved__::PcpPrimIndex_Graph::_Node>>::_Vector_impl" = type { %"struct.std::_Vector_base<pxrInternal_v0_24__pxrReserved__::PcpPrimIndex_Graph::_Node, std::allocator<pxrInternal_v0_24__pxrReserved__::PcpPrimIndex_Graph::_Node>>::_Vector_impl_data" }
%"struct.std::_Vector_base<pxrInternal_v0_24__pxrReserved__::PcpPrimIndex_Graph::_Node, std::allocator<pxrInternal_v0_24__pxrReserved__::PcpPrimIndex_Graph::_Node>>::_Vector_impl_data" = type { ptr, ptr, ptr }

@.str.3 = private unnamed_addr constant [123 x i8] c"generated/home/dtcxzyw/WorkSpace/Projects/compilers/llvm-opt-benchmark/bench/openusd/OpenUSD/pxr/usd/pcp/primIndex_Graph.h\00", align 1
@__func__._ZNK32pxrInternal_v0_24__pxrReserved__18PcpPrimIndex_Graph8_GetNodeEm = private unnamed_addr constant [9 x i8] c"_GetNode\00", align 1
@__PRETTY_FUNCTION__._ZNK32pxrInternal_v0_24__pxrReserved__18PcpPrimIndex_Graph8_GetNodeEm = private unnamed_addr constant [90 x i8] c"const _Node &pxrInternal_v0_24__pxrReserved__::PcpPrimIndex_Graph::_GetNode(size_t) const\00", align 1
@.str.4 = private unnamed_addr constant [21 x i8] c"idx < _GetNumNodes()\00", align 1
@.str.5 = private unnamed_addr constant [21 x i8] c"Failed axiom: ' %s '\00", align 1

; Function Attrs: mustprogress nounwind uwtable
define linkonce_odr noundef ptr @_ZNKSt12__shared_ptrISt6vectorIN32pxrInternal_v0_24__pxrReserved__18PcpPrimIndex_Graph5_NodeESaIS3_EELN9__gnu_cxx12_Lock_policyE2EE3getEv(ptr noundef nonnull align 8 dereferenceable(16) %0) #0 comdat align 2 {
  %2 = alloca ptr, align 8
  store ptr %0, ptr %2, align 8
  %3 = load ptr, ptr %2, align 8
  %4 = getelementptr inbounds nuw %"class.std::__shared_ptr", ptr %3, i32 0, i32 0
  %5 = load ptr, ptr %4, align 8
  ret ptr %5
}

; Function Attrs: mustprogress nounwind uwtable
define linkonce_odr noundef ptr @_ZNKSt19__shared_ptr_accessISt6vectorIN32pxrInternal_v0_24__pxrReserved__18PcpPrimIndex_Graph5_NodeESaIS3_EELN9__gnu_cxx12_Lock_policyE2ELb0ELb0EE6_M_getEv(ptr noundef nonnull align 1 dereferenceable(1) %0) #0 comdat align 2 {
  %2 = alloca ptr, align 8
  store ptr %0, ptr %2, align 8
  %3 = load ptr, ptr %2, align 8
  %4 = call noundef ptr @_ZNKSt12__shared_ptrISt6vectorIN32pxrInternal_v0_24__pxrReserved__18PcpPrimIndex_Graph5_NodeESaIS3_EELN9__gnu_cxx12_Lock_policyE2EE3getEv(ptr noundef nonnull align 8 dereferenceable(16) %3) #8
  ret ptr %4
}

; Function Attrs: mustprogress nounwind uwtable
define linkonce_odr void @_ZN32pxrInternal_v0_24__pxrReserved__23Tf_DiagnosticLiteHelperC2ERKNS_13TfCallContextENS_16TfDiagnosticTypeE(ptr noundef nonnull align 8 dereferenceable(44) %0, ptr noundef nonnull align 8 dereferenceable(33) %1, i32 noundef %2) unnamed_addr #0 comdat align 2 {
  %4 = alloca ptr, align 8
  %5 = alloca ptr, align 8
  %6 = alloca i32, align 4
  store ptr %0, ptr %4, align 8
  store ptr %1, ptr %5, align 8
  store i32 %2, ptr %6, align 4
  %7 = load ptr, ptr %4, align 8
  %8 = getelementptr inbounds nuw %"struct.pxrInternal_v0_24__pxrReserved__::Tf_DiagnosticLiteHelper", ptr %7, i32 0, i32 0
  %9 = load ptr, ptr %5, align 8
  call void @llvm.memcpy.p0.p0.i64(ptr align 8 %8, ptr align 8 %9, i64 40, i1 false)
  %10 = getelementptr inbounds nuw %"struct.pxrInternal_v0_24__pxrReserved__::Tf_DiagnosticLiteHelper", ptr %7, i32 0, i32 1
  %11 = load i32, ptr %6, align 4
  store i32 %11, ptr %10, align 8
  ret void
}

; Function Attrs: mustprogress nounwind uwtable
define linkonce_odr noundef nonnull align 8 dereferenceable(44) ptr @_ZNSt6vectorIN32pxrInternal_v0_24__pxrReserved__18PcpPrimIndex_Graph5_NodeESaIS2_EEixEm(ptr noundef nonnull align 8 dereferenceable(24) %0, i64 noundef %1) #0 comdat align 2 {
  %3 = alloca ptr, align 8
  %4 = alloca i64, align 8
  store ptr %0, ptr %3, align 8
  store i64 %1, ptr %4, align 8
  %5 = load ptr, ptr %3, align 8
  %6 = getelementptr inbounds nuw %"struct.std::_Vector_base.3", ptr %5, i32 0, i32 0
  %7 = getelementptr inbounds nuw %"struct.std::_Vector_base<pxrInternal_v0_24__pxrReserved__::PcpPrimIndex_Graph::_Node, std::allocator<pxrInternal_v0_24__pxrReserved__::PcpPrimIndex_Graph::_Node>>::_Vector_impl_data", ptr %6, i32 0, i32 0
  %8 = load ptr, ptr %7, align 8
  %9 = load i64, ptr %4, align 8
  %10 = getelementptr inbounds %"struct.pxrInternal_v0_24__pxrReserved__::PcpPrimIndex_Graph::_Node", ptr %8, i64 %9
  ret ptr %10
}

; Function Attrs: mustprogress nounwind uwtable
define linkonce_odr noundef nonnull align 8 dereferenceable(24) ptr @_ZNKSt19__shared_ptr_accessISt6vectorIN32pxrInternal_v0_24__pxrReserved__18PcpPrimIndex_Graph5_NodeESaIS3_EELN9__gnu_cxx12_Lock_policyE2ELb0ELb0EEdeEv(ptr noundef nonnull align 1 dereferenceable(1) %0) #0 comdat align 2 {
  %2 = alloca ptr, align 8
  store ptr %0, ptr %2, align 8
  %3 = load ptr, ptr %2, align 8
  br label %4

4:                                                ; preds = %1
  br label %5

5:                                                ; preds = %4
  br label %6

6:                                                ; preds = %5
  %7 = call noundef ptr @_ZNKSt19__shared_ptr_accessISt6vectorIN32pxrInternal_v0_24__pxrReserved__18PcpPrimIndex_Graph5_NodeESaIS3_EELN9__gnu_cxx12_Lock_policyE2ELb0ELb0EE6_M_getEv(ptr noundef nonnull align 1 dereferenceable(1) %3) #8
  ret ptr %7
}

; Function Attrs: mustprogress uwtable
define linkonce_odr noundef zeroext i1 @_ZN32pxrInternal_v0_24__pxrReserved__14Tf_AxiomHelperEbRKNS_13TfCallContextEPKc(i1 noundef zeroext %0, ptr noundef nonnull align 8 dereferenceable(33) %1, ptr noundef %2) #1 comdat {
  %4 = alloca i8, align 1
  %5 = alloca ptr, align 8
  %6 = alloca ptr, align 8
  %7 = alloca %"struct.pxrInternal_v0_24__pxrReserved__::Tf_DiagnosticLiteHelper", align 8
  %8 = zext i1 %0 to i8
  store i8 %8, ptr %4, align 1
  store ptr %1, ptr %5, align 8
  store ptr %2, ptr %6, align 8
  %9 = load i8, ptr %4, align 1
  %10 = trunc i8 %9 to i1
  br i1 %10, label %11, label %12

11:                                               ; preds = %3
  br label %16

12:                                               ; preds = %3
  %13 = load ptr, ptr %5, align 8
  call void @_ZN32pxrInternal_v0_24__pxrReserved__23Tf_DiagnosticLiteHelperC2ERKNS_13TfCallContextENS_16TfDiagnosticTypeE(ptr noundef nonnull align 8 dereferenceable(44) %7, ptr noundef nonnull align 8 dereferenceable(33) %13, i32 noundef 4)
  %14 = load ptr, ptr %6, align 8
  call void (ptr, ptr, ...) @_ZNK32pxrInternal_v0_24__pxrReserved__23Tf_DiagnosticLiteHelper15IssueFatalErrorEPKcz(ptr noundef nonnull align 8 dereferenceable(44) %7, ptr noundef @.str.5, ptr noundef %14) #9
  unreachable

15:                                               ; No predecessors!
  br label %16

16:                                               ; preds = %15, %11
  %17 = phi i1 [ true, %11 ], [ false, %15 ]
  ret i1 %17
}

; Function Attrs: mustprogress nounwind uwtable
define linkonce_odr void @_ZN32pxrInternal_v0_24__pxrReserved__13TfCallContextC2EPKcS2_mS2_(ptr noundef nonnull align 8 dereferenceable(33) %0, ptr noundef %1, ptr noundef %2, i64 noundef %3, ptr noundef %4) unnamed_addr #0 comdat align 2 {
  %6 = alloca ptr, align 8
  %7 = alloca ptr, align 8
  %8 = alloca ptr, align 8
  %9 = alloca i64, align 8
  %10 = alloca ptr, align 8
  store ptr %0, ptr %6, align 8
  store ptr %1, ptr %7, align 8
  store ptr %2, ptr %8, align 8
  store i64 %3, ptr %9, align 8
  store ptr %4, ptr %10, align 8
  %11 = load ptr, ptr %6, align 8
  %12 = getelementptr inbounds nuw %"class.pxrInternal_v0_24__pxrReserved__::TfCallContext", ptr %11, i32 0, i32 0
  %13 = load ptr, ptr %7, align 8
  store ptr %13, ptr %12, align 8
  %14 = getelementptr inbounds nuw %"class.pxrInternal_v0_24__pxrReserved__::TfCallContext", ptr %11, i32 0, i32 1
  %15 = load ptr, ptr %8, align 8
  store ptr %15, ptr %14, align 8
  %16 = getelementptr inbounds nuw %"class.pxrInternal_v0_24__pxrReserved__::TfCallContext", ptr %11, i32 0, i32 2
  %17 = load i64, ptr %9, align 8
  store i64 %17, ptr %16, align 8
  %18 = getelementptr inbounds nuw %"class.pxrInternal_v0_24__pxrReserved__::TfCallContext", ptr %11, i32 0, i32 3
  %19 = load ptr, ptr %10, align 8
  store ptr %19, ptr %18, align 8
  %20 = getelementptr inbounds nuw %"class.pxrInternal_v0_24__pxrReserved__::TfCallContext", ptr %11, i32 0, i32 4
  store i8 0, ptr %20, align 8
  ret void
}

; Function Attrs: mustprogress uwtable
define linkonce_odr noundef nonnull align 8 dereferenceable(44) ptr @_ZNK32pxrInternal_v0_24__pxrReserved__18PcpPrimIndex_Graph8_GetNodeEm(ptr noundef nonnull align 8 dereferenceable(57) %0, i64 noundef %1) #1 comdat align 2 {
  %3 = alloca ptr, align 8
  %4 = alloca i64, align 8
  %5 = alloca %"class.pxrInternal_v0_24__pxrReserved__::TfCallContext", align 8
  store ptr %0, ptr %3, align 8
  store i64 %1, ptr %4, align 8
  %6 = load ptr, ptr %3, align 8
  call void @_ZN32pxrInternal_v0_24__pxrReserved__13TfCallContextC2EPKcS2_mS2_(ptr noundef nonnull align 8 dereferenceable(33) %5, ptr noundef @.str.3, ptr noundef @__func__._ZNK32pxrInternal_v0_24__pxrReserved__18PcpPrimIndex_Graph8_GetNodeEm, i64 noundef 235, ptr noundef @__PRETTY_FUNCTION__._ZNK32pxrInternal_v0_24__pxrReserved__18PcpPrimIndex_Graph8_GetNodeEm)
  %7 = call noundef zeroext i1 @_ZN32pxrInternal_v0_24__pxrReserved__14Tf_AxiomHelperEbRKNS_13TfCallContextEPKc(i1 noundef zeroext true, ptr noundef nonnull align 8 dereferenceable(33) %5, ptr noundef @.str.4)
  %8 = getelementptr inbounds nuw %"class.pxrInternal_v0_24__pxrReserved__::PcpPrimIndex_Graph", ptr %6, i32 0, i32 2
  %9 = call noundef nonnull align 8 dereferenceable(24) ptr @_ZNKSt19__shared_ptr_accessISt6vectorIN32pxrInternal_v0_24__pxrReserved__18PcpPrimIndex_Graph5_NodeESaIS3_EELN9__gnu_cxx12_Lock_policyE2ELb0ELb0EEdeEv(ptr noundef nonnull align 1 dereferenceable(1) %8) #8
  %10 = load i64, ptr %4, align 8
  %11 = call noundef nonnull align 8 dereferenceable(44) ptr @_ZNSt6vectorIN32pxrInternal_v0_24__pxrReserved__18PcpPrimIndex_Graph5_NodeESaIS2_EEixEm(ptr noundef nonnull align 8 dereferenceable(24) %9, i64 noundef %10) #8
  ret ptr %11
}

; Function Attrs: mustprogress uwtable
define void @_ZN32pxrInternal_v0_24__pxrReserved__27PcpNodeRef_ChildrenIterator9incrementEv(ptr noundef nonnull align 8 dereferenceable(24) %0) #1 align 2 {
  %2 = alloca ptr, align 8
  store ptr %0, ptr %2, align 8
  %3 = load ptr, ptr %2, align 8
  %4 = getelementptr inbounds nuw %"class.pxrInternal_v0_24__pxrReserved__::PcpNodeRef_ChildrenIterator", ptr %3, i32 0, i32 0
  %5 = getelementptr inbounds nuw %"class.pxrInternal_v0_24__pxrReserved__::PcpNodeRef", ptr %4, i32 0, i32 0
  %6 = load ptr, ptr %5, align 8
  %7 = getelementptr inbounds nuw %"class.pxrInternal_v0_24__pxrReserved__::PcpNodeRef_ChildrenIterator", ptr %3, i32 0, i32 1
  %8 = load i64, ptr %7, align 8
  %9 = call noundef nonnull align 8 dereferenceable(44) ptr @_ZNK32pxrInternal_v0_24__pxrReserved__18PcpPrimIndex_Graph8_GetNodeEm(ptr noundef nonnull align 8 dereferenceable(57) %6, i64 noundef %8)
  %10 = getelementptr inbounds nuw %"struct.pxrInternal_v0_24__pxrReserved__::PcpPrimIndex_Graph::_Node", ptr %9, i32 0, i32 3
  %11 = getelementptr inbounds nuw %"struct.pxrInternal_v0_24__pxrReserved__::PcpPrimIndex_Graph::_Node::_Indexes", ptr %10, i32 0, i32 5
  %12 = load i16, ptr %11, align 2
  %13 = zext i16 %12 to i64
  %14 = getelementptr inbounds nuw %"class.pxrInternal_v0_24__pxrReserved__::PcpNodeRef_ChildrenIterator", ptr %3, i32 0, i32 1
  store i64 %13, ptr %14, align 8
  ret void
}