; Function Attrs: mustprogress nofree norecurse nosync nounwind willreturn memory(read, argmem: readwrite, inaccessiblemem: none) uwtable
define void @_ZN32pxrInternal_v0_24__pxrReserved__27PcpNodeRef_ChildrenIterator9incrementEv(ptr noundef nonnull align 8 captures(none) dereferenceable(24) %0) local_unnamed_addr #8 align 2 {
  %2 = load ptr, ptr %0, align 8
  %3 = getelementptr inbounds nuw i8, ptr %0, i64 16
  %4 = load i64, ptr %3, align 8
  %5 = getelementptr inbounds nuw i8, ptr %2, i64 16
  %6 = load ptr, ptr %5, align 8
  %7 = load ptr, ptr %6, align 8
  %8 = getelementptr inbounds %"struct.pxrInternal_v0_24__pxrReserved__::PcpPrimIndex_Graph::_Node", ptr %7, i64 %4, i32 3, i32 5
  %9 = load i16, ptr %8, align 2
  %10 = zext i16 %9 to i64
  store i64 %10, ptr %3, align 8
  ret void
}